; Function Attrs: nounwind uwtable
define ptr @bufferevent_get_underlying(ptr noundef %0) local_unnamed_addr #0 {
  %2 = alloca %union.bufferevent_ctrl_data, align 8
  call void @llvm.lifetime.start.p0(i64 8, ptr nonnull %2) #7
  store ptr null, ptr %2, align 8
  %3 = getelementptr inbounds nuw i8, ptr %0, i64 448
  %4 = load ptr, ptr %3, align 8
  %.not = icmp eq ptr %4, null
  br i1 %.not, label %8, label %5

5:                                                ; preds = %1
  %6 = load ptr, ptr getelementptr inbounds nuw (i8, ptr @evthread_lock_fns_, i64 24), align 8
  %7 = tail call i32 %6(i32 noundef 0, ptr noundef nonnull %4) #7
  br label %8

8:                                                ; preds = %5, %1
  %9 = getelementptr inbounds nuw i8, ptr %0, i64 8
  %10 = load ptr, ptr %9, align 8
  %11 = getelementptr inbounds nuw i8, ptr %10, i64 64
  %12 = load ptr, ptr %11, align 8
  %.not12 = icmp eq ptr %12, null
  br i1 %.not12, label %16, label %13

13:                                               ; preds = %8
  %14 = call i32 %12(ptr noundef nonnull %0, i32 noundef 2, ptr noundef nonnull %2) #7
  %15 = icmp slt i32 %14, 0
  br label %16

16:                                               ; preds = %8, %13
  %.0 = phi i1 [ %15, %13 ], [ true, %8 ]
  %17 = load ptr, ptr %3, align 8
  %.not13 = icmp eq ptr %17, null
  br i1 %.not13, label %21, label %18

18:                                               ; preds = %16
  %19 = load ptr, ptr getelementptr inbounds nuw (i8, ptr @evthread_lock_fns_, i64 32), align 8
  %20 = call i32 %19(i32 noundef 0, ptr noundef nonnull %17) #7
  br label %21

21:                                               ; preds = %18, %16
  %22 = load ptr, ptr %2, align 8
  %23 = select i1 %.0, ptr null, ptr %22
  call void @llvm.lifetime.end.p0(i64 8, ptr nonnull %2) #7
  ret ptr %23
}